target datalayout = "e-m:e-p270:32:32-p271:32:32-p272:64:64-i64:64-i128:128-f80:128-n8:16:32:64-S128"
target triple = "x86_64-unknown-linux-gnu"

%class.anon.26 = type { ptr }
%class.anon.74 = type { ptr }
%class.anon.75 = type { i8 }

@_ZSt15__once_callable = external thread_local global ptr, align 8

; Function Attrs: mustprogress uwtable
define internal void @"_ZZNK14arrow_vendored4date9time_zone4initEvENK3$_0clEv"(ptr noundef nonnull align 8 dereferenceable(8) %this) #7 align 2 {
entry:
  %this.addr = alloca ptr, align 8
  store ptr %this, ptr %this.addr, align 8
  %this1 = load ptr, ptr %this.addr, align 8
  %0 = getelementptr inbounds %class.anon.26, ptr %this1, i32 0, i32 0
  %1 = load ptr, ptr %0, align 8
  call void @_ZN14arrow_vendored4date9time_zone9init_implEv(ptr noundef nonnull align 8 dereferenceable(88) %1)
  ret void
}

; Function Attrs: mustprogress uwtable
define internal void @"_ZSt13__invoke_implIvZNK14arrow_vendored4date9time_zone4initEvE3$_0JEET_St14__invoke_otherOT0_DpOT1_"(ptr noundef nonnull align 8 dereferenceable(8) %__f) #7 {
entry:
  %__f.addr = alloca ptr, align 8
  store ptr %__f, ptr %__f.addr, align 8
  %0 = load ptr, ptr %__f.addr, align 8
  call void @"_ZZNK14arrow_vendored4date9time_zone4initEvENK3$_0clEv"(ptr noundef nonnull align 8 dereferenceable(8) %0)
  ret void
}

; Function Attrs: mustprogress uwtable
define internal void @"_ZSt8__invokeIZNK14arrow_vendored4date9time_zone4initEvE3$_0JEENSt15__invoke_resultIT_JDpT0_EE4typeEOS5_DpOS6_"(ptr noundef nonnull align 8 dereferenceable(8) %__fn) #7 {
entry:
  %__fn.addr = alloca ptr, align 8
  store ptr %__fn, ptr %__fn.addr, align 8
  %0 = load ptr, ptr %__fn.addr, align 8
  call void @"_ZSt13__invoke_implIvZNK14arrow_vendored4date9time_zone4initEvE3$_0JEET_St14__invoke_otherOT0_DpOT1_"(ptr noundef nonnull align 8 dereferenceable(8) %0)
  ret void
}

; Function Attrs: mustprogress uwtable
define internal void @"_ZZSt9call_onceIZNK14arrow_vendored4date9time_zone4initEvE3$_0JEEvRSt9once_flagOT_DpOT0_ENKUlvE_clEv"(ptr noundef nonnull align 8 dereferenceable(8) %this) #7 align 2 {
entry:
  %this.addr = alloca ptr, align 8
  store ptr %this, ptr %this.addr, align 8
  %this1 = load ptr, ptr %this.addr, align 8
  %0 = getelementptr inbounds %class.anon.74, ptr %this1, i32 0, i32 0
  %1 = load ptr, ptr %0, align 8
  call void @"_ZSt8__invokeIZNK14arrow_vendored4date9time_zone4initEvE3$_0JEENSt15__invoke_resultIT_JDpT0_EE4typeEOS5_DpOS6_"(ptr noundef nonnull align 8 dereferenceable(8) %1)
  ret void
}

; Function Attrs: mustprogress uwtable
define internal void @"_ZZNSt9once_flag18_Prepare_executionC1IZSt9call_onceIZNK14arrow_vendored4date9time_zone4initEvE3$_0JEEvRS_OT_DpOT0_EUlvE_EERS8_ENKUlvE_clEv"(ptr noundef nonnull align 1 dereferenceable(1) %this) #7 align 2 {
entry:
  %this.addr = alloca ptr, align 8
  store ptr %this, ptr %this.addr, align 8
  %0 = call align 8 ptr @llvm.threadlocal.address.p0(ptr align 8 @_ZSt15__once_callable)
  %1 = load ptr, ptr %0, align 8
  call void @"_ZZSt9call_onceIZNK14arrow_vendored4date9time_zone4initEvE3$_0JEEvRSt9once_flagOT_DpOT0_ENKUlvE_clEv"(ptr noundef nonnull align 8 dereferenceable(8) %1)
  ret void
}

; Function Attrs: mustprogress uwtable
define internal void @"_ZZNSt9once_flag18_Prepare_executionC1IZSt9call_onceIZNK14arrow_vendored4date9time_zone4initEvE3$_0JEEvRS_OT_DpOT0_EUlvE_EERS8_ENUlvE_8__invokeEv"() #7 align 2 {
entry:
  %unused.capture = alloca %class.anon.75, align 1
  call void @"_ZZNSt9once_flag18_Prepare_executionC1IZSt9call_onceIZNK14arrow_vendored4date9time_zone4initEvE3$_0JEEvRS_OT_DpOT0_EUlvE_EERS8_ENKUlvE_clEv"(ptr noundef nonnull align 1 dereferenceable(1) %unused.capture)
  ret void
}